; ModuleID = '45/572.c'
source_filename = "45/572.c"
target datalayout = "e-m:e-p270:32:32-p271:32:32-p272:64:64-i64:64-f80:128-n8:16:32:64-S128"
target triple = "x86_64-pc-linux-gnu"

@.str = private unnamed_addr constant [5 x i8] c"%s%s\00", align 1
@.str.1 = private unnamed_addr constant [3 x i8] c"%d\00", align 1

; Function Attrs: noinline nounwind uwtable
define dso_local void @main() #0 {
  %1 = alloca [50 x i8], align 16
  %2 = alloca [50 x i8], align 16
  %3 = alloca i8*, align 8
  %4 = alloca i8*, align 8
  %5 = alloca i8*, align 8
  %6 = alloca i32, align 4
  %7 = bitcast [50 x i8]* %1 to i8*
  call void @llvm.memset.p0i8.i64(i8* align 16 %7, i8 0, i64 50, i1 false)
  %8 = bitcast [50 x i8]* %2 to i8*
  call void @llvm.memset.p0i8.i64(i8* align 16 %8, i8 0, i64 50, i1 false)
  store i32 0, i32* %6, align 4
  %9 = getelementptr inbounds [50 x i8], [50 x i8]* %1, i64 0, i64 0
  %10 = getelementptr inbounds [50 x i8], [50 x i8]* %2, i64 0, i64 0
  %11 = call i32 (i8*, ...) @__isoc99_scanf(i8* getelementptr inbounds ([5 x i8], [5 x i8]* @.str, i64 0, i64 0), i8* %9, i8* %10)
  %12 = getelementptr inbounds [50 x i8], [50 x i8]* %2, i64 0, i64 0
  store i8* %12, i8** %3, align 8
  %13 = getelementptr inbounds [50 x i8], [50 x i8]* %1, i64 0, i64 0
  store i8* %13, i8** %4, align 8
  br label %14

14:                                               ; preds = %63, %0
  %15 = load i8*, i8** %3, align 8
  %16 = load i8, i8* %15, align 1
  %17 = sext i8 %16 to i32
  %18 = icmp ne i32 %17, 0
  br i1 %18, label %19, label %66

19:                                               ; preds = %14
  %20 = load i8*, i8** %3, align 8
  %21 = load i8, i8* %20, align 1
  %22 = sext i8 %21 to i32
  %23 = load i8*, i8** %4, align 8
  %24 = load i8, i8* %23, align 1
  %25 = sext i8 %24 to i32
  %26 = icmp eq i32 %22, %25
  br i1 %26, label %27, label %59

27:                                               ; preds = %19
  %28 = load i8*, i8** %3, align 8
  store i8* %28, i8** %5, align 8
  br label %29

29:                                               ; preds = %44, %27
  %30 = load i8*, i8** %4, align 8
  %31 = load i8, i8* %30, align 1
  %32 = sext i8 %31 to i32
  %33 = icmp ne i32 %32, 0
  br i1 %33, label %34, label %49

34:                                               ; preds = %29
  %35 = load i8*, i8** %4, align 8
  %36 = load i8, i8* %35, align 1
  %37 = sext i8 %36 to i32
  %38 = load i8*, i8** %5, align 8
  %39 = load i8, i8* %38, align 1
  %40 = sext i8 %39 to i32
  %41 = icmp eq i32 %37, %40
  br i1 %41, label %42, label %43

42:                                               ; preds = %34
  br label %44

43:                                               ; preds = %34
  br label %49

44:                                               ; preds = %42
  %45 = load i8*, i8** %4, align 8
  %46 = getelementptr inbounds i8, i8* %45, i64 1
  store i8* %46, i8** %4, align 8
  %47 = load i8*, i8** %5, align 8
  %48 = getelementptr inbounds i8, i8* %47, i64 1
  store i8* %48, i8** %5, align 8
  br label %29

49:                                               ; preds = %43, %29
  %50 = load i8*, i8** %4, align 8
  %51 = load i8, i8* %50, align 1
  %52 = sext i8 %51 to i32
  %53 = icmp eq i32 %52, 0
  br i1 %53, label %54, label %57

54:                                               ; preds = %49
  %55 = load i32, i32* %6, align 4
  %56 = call i32 (i8*, ...) @printf(i8* getelementptr inbounds ([3 x i8], [3 x i8]* @.str.1, i64 0, i64 0), i32 %55)
  br label %66

57:                                               ; preds = %49
  %58 = getelementptr inbounds [50 x i8], [50 x i8]* %1, i64 0, i64 0
  store i8* %58, i8** %4, align 8
  br label %62

59:                                               ; preds = %19
  %60 = load i32, i32* %6, align 4
  %61 = add nsw i32 %60, 1
  store i32 %61, i32* %6, align 4
  br label %62

62:                                               ; preds = %59, %57
  br label %63

63:                                               ; preds = %62
  %64 = load i8*, i8** %3, align 8
  %65 = getelementptr inbounds i8, i8* %64, i64 1
  store i8* %65, i8** %3, align 8
  br label %14

66:                                               ; preds = %54, %14
  ret void
}

; Function Attrs: argmemonly nounwind willreturn
declare void @llvm.memset.p0i8.i64(i8* nocapture writeonly, i8, i64, i1 immarg) #1

declare dso_local i32 @__isoc99_scanf(i8*, ...) #2

declare dso_local i32 @printf(i8*, ...) #2


!llvm.module.flags = !{!0}
!llvm.ident = !{!1}

!0 = !{i32 1, !"wchar_size", i32 4}
!1 = !{!"clang version 10.0.0-4ubuntu1 "}
